; ModuleID = 'source-C-CXX/10/780.cpp'
source_filename = "source-C-CXX/10/780.cpp"
target datalayout = "e-m:e-p270:32:32-p271:32:32-p272:64:64-i64:64-f80:128-n8:16:32:64-S128"
target triple = "x86_64-pc-linux-gnu"

%"class.std::ios_base::Init" = type { i8 }
%"class.std::basic_istream" = type { i32 (...)**, i64, %"class.std::basic_ios" }
%"class.std::basic_ios" = type { %"class.std::ios_base", %"class.std::basic_ostream"*, i8, i8, %"class.std::basic_streambuf"*, %"class.std::ctype"*, %"class.std::num_put"*, %"class.std::num_get"* }
%"class.std::ios_base" = type { i32 (...)**, i64, i64, i32, i32, i32, %"struct.std::ios_base::_Callback_list"*, %"struct.std::ios_base::_Words", [8 x %"struct.std::ios_base::_Words"], i32, %"struct.std::ios_base::_Words"*, %"class.std::locale" }
%"struct.std::ios_base::_Callback_list" = type { %"struct.std::ios_base::_Callback_list"*, void (i32, %"class.std::ios_base"*, i32)*, i32, i32 }
%"struct.std::ios_base::_Words" = type { i8*, i64 }
%"class.std::locale" = type { %"class.std::locale::_Impl"* }
%"class.std::locale::_Impl" = type { i32, %"class.std::locale::facet"**, i64, %"class.std::locale::facet"**, i8** }
%"class.std::locale::facet" = type <{ i32 (...)**, i32, [4 x i8] }>
%"class.std::basic_ostream" = type { i32 (...)**, %"class.std::basic_ios" }
%"class.std::basic_streambuf" = type { i32 (...)**, i8*, i8*, i8*, i8*, i8*, i8*, %"class.std::locale" }
%"class.std::ctype" = type <{ %"class.std::locale::facet.base", [4 x i8], %struct.__locale_struct*, i8, [7 x i8], i32*, i32*, i16*, i8, [256 x i8], [256 x i8], i8, [6 x i8] }>
%"class.std::locale::facet.base" = type <{ i32 (...)**, i32 }>
%struct.__locale_struct = type { [13 x %struct.__locale_data*], i16*, i32*, i32*, [13 x i8*] }
%struct.__locale_data = type opaque
%"class.std::num_put" = type { %"class.std::locale::facet.base", [4 x i8] }
%"class.std::num_get" = type { %"class.std::locale::facet.base", [4 x i8] }

@_ZStL8__ioinit = internal global %"class.std::ios_base::Init" zeroinitializer, align 1
@__dso_handle = external hidden global i8
@_ZSt3cin = external global %"class.std::basic_istream", align 8
@__const.main.m = private unnamed_addr constant [13 x i32] [i32 0, i32 31, i32 28, i32 31, i32 30, i32 31, i32 30, i32 31, i32 31, i32 30, i32 31, i32 30, i32 31], align 16
@_ZSt4cout = external global %"class.std::basic_ostream", align 8
@llvm.global_ctors = appending global [1 x { i32, void ()*, i8* }] [{ i32, void ()*, i8* } { i32 65535, void ()* @_GLOBAL__sub_I_780.cpp, i8* null }]

declare void @_ZNSt8ios_base4InitC1Ev(%"class.std::ios_base::Init"* nonnull align 1 dereferenceable(1)) unnamed_addr #0

; Function Attrs: nounwind
declare void @_ZNSt8ios_base4InitD1Ev(%"class.std::ios_base::Init"* nonnull align 1 dereferenceable(1)) unnamed_addr #1

; Function Attrs: nofree nounwind
declare i32 @__cxa_atexit(void (i8*)*, i8*, i8*) local_unnamed_addr #2

; Function Attrs: mustprogress nofree norecurse nosync nounwind readnone sspstrong uwtable willreturn
define dso_local i32 @_Z5checki(i32 %0) local_unnamed_addr #3 {
  %2 = srem i32 %0, 400
  %3 = icmp eq i32 %2, 0
  br i1 %3, label %11, label %4

4:                                                ; preds = %1
  %5 = srem i32 %0, 100
  %6 = icmp ne i32 %5, 0
  %7 = and i32 %0, 3
  %8 = icmp eq i32 %7, 0
  %9 = and i1 %6, %8
  %10 = zext i1 %9 to i32
  br label %11

11:                                               ; preds = %4, %1
  %12 = phi i32 [ 1, %1 ], [ %10, %4 ]
  ret i32 %12
}

; Function Attrs: mustprogress norecurse sspstrong uwtable
define dso_local i32 @main() local_unnamed_addr #4 {
  %1 = alloca i32, align 4
  %2 = alloca i32, align 4
  %3 = alloca i32, align 4
  %4 = bitcast i32* %1 to i8*
  call void @llvm.lifetime.start.p0i8(i64 4, i8* nonnull %4) #9
  %5 = bitcast i32* %2 to i8*
  call void @llvm.lifetime.start.p0i8(i64 4, i8* nonnull %5) #9
  %6 = bitcast i32* %3 to i8*
  call void @llvm.lifetime.start.p0i8(i64 4, i8* nonnull %6) #9
  %7 = call nonnull align 8 dereferenceable(16) %"class.std::basic_istream"* @_ZNSirsERi(%"class.std::basic_istream"* nonnull align 8 dereferenceable(16) @_ZSt3cin, i32* nonnull align 4 dereferenceable(4) %1)
  %8 = call nonnull align 8 dereferenceable(16) %"class.std::basic_istream"* @_ZNSirsERi(%"class.std::basic_istream"* nonnull align 8 dereferenceable(16) @_ZSt3cin, i32* nonnull align 4 dereferenceable(4) %2)
  %9 = call nonnull align 8 dereferenceable(16) %"class.std::basic_istream"* @_ZNSirsERi(%"class.std::basic_istream"* nonnull align 8 dereferenceable(16) @_ZSt3cin, i32* nonnull align 4 dereferenceable(4) %3)
  %10 = load i32, i32* %2, align 4, !tbaa !5
  %11 = load i32, i32* %1, align 4
  %12 = srem i32 %11, 100
  %13 = icmp ne i32 %12, 0
  %14 = and i32 %11, 3
  %15 = icmp eq i32 %14, 0
  %16 = and i1 %13, %15
  %17 = icmp sgt i32 %10, 1
  br i1 %17, label %18, label %121

18:                                               ; preds = %0
  %19 = srem i32 %11, 400
  %20 = icmp eq i32 %19, 0
  %21 = zext i32 %10 to i64
  %22 = add nsw i64 %21, -1
  %23 = icmp ult i64 %22, 8
  br i1 %20, label %64, label %24

24:                                               ; preds = %18
  br i1 %23, label %61, label %25

25:                                               ; preds = %24
  %26 = and i64 %22, -8
  %27 = or i64 %26, 1
  %28 = insertelement <4 x i1> poison, i1 %16, i32 0
  %29 = shufflevector <4 x i1> %28, <4 x i1> poison, <4 x i32> zeroinitializer
  %30 = insertelement <4 x i1> poison, i1 %16, i32 0
  %31 = shufflevector <4 x i1> %30, <4 x i1> poison, <4 x i32> zeroinitializer
  br label %32

32:                                               ; preds = %32, %25
  %33 = phi i64 [ 0, %25 ], [ %54, %32 ]
  %34 = phi <4 x i64> [ <i64 1, i64 2, i64 3, i64 4>, %25 ], [ %55, %32 ]
  %35 = phi <4 x i32> [ zeroinitializer, %25 ], [ %52, %32 ]
  %36 = phi <4 x i32> [ zeroinitializer, %25 ], [ %53, %32 ]
  %37 = or i64 %33, 1
  %38 = getelementptr inbounds [13 x i32], [13 x i32]* @__const.main.m, i64 0, i64 %37
  %39 = bitcast i32* %38 to <4 x i32>*
  %40 = load <4 x i32>, <4 x i32>* %39, align 4, !tbaa !5
  %41 = getelementptr inbounds i32, i32* %38, i64 4
  %42 = bitcast i32* %41 to <4 x i32>*
  %43 = load <4 x i32>, <4 x i32>* %42, align 4, !tbaa !5
  %44 = add <4 x i32> %40, %35
  %45 = add <4 x i32> %43, %36
  %46 = icmp eq <4 x i64> %34, <i64 2, i64 2, i64 2, i64 2>
  %47 = icmp eq <4 x i64> %34, <i64 -2, i64 -2, i64 -2, i64 -2>
  %48 = select <4 x i1> %46, <4 x i1> %29, <4 x i1> zeroinitializer
  %49 = select <4 x i1> %47, <4 x i1> %31, <4 x i1> zeroinitializer
  %50 = zext <4 x i1> %48 to <4 x i32>
  %51 = zext <4 x i1> %49 to <4 x i32>
  %52 = add <4 x i32> %44, %50
  %53 = add <4 x i32> %45, %51
  %54 = add nuw i64 %33, 8
  %55 = add <4 x i64> %34, <i64 8, i64 8, i64 8, i64 8>
  %56 = icmp eq i64 %54, %26
  br i1 %56, label %57, label %32, !llvm.loop !9

57:                                               ; preds = %32
  %58 = add <4 x i32> %53, %52
  %59 = call i32 @llvm.vector.reduce.add.v4i32(<4 x i32> %58)
  %60 = icmp eq i64 %22, %26
  br i1 %60, label %121, label %61

61:                                               ; preds = %24, %57
  %62 = phi i64 [ 1, %24 ], [ %27, %57 ]
  %63 = phi i32 [ 0, %24 ], [ %59, %57 ]
  br label %109

64:                                               ; preds = %18
  br i1 %23, label %95, label %65

65:                                               ; preds = %64
  %66 = and i64 %22, -8
  %67 = or i64 %66, 1
  br label %68

68:                                               ; preds = %68, %65
  %69 = phi i64 [ 0, %65 ], [ %88, %68 ]
  %70 = phi <4 x i64> [ <i64 1, i64 2, i64 3, i64 4>, %65 ], [ %89, %68 ]
  %71 = phi <4 x i32> [ zeroinitializer, %65 ], [ %86, %68 ]
  %72 = phi <4 x i32> [ zeroinitializer, %65 ], [ %87, %68 ]
  %73 = or i64 %69, 1
  %74 = getelementptr inbounds [13 x i32], [13 x i32]* @__const.main.m, i64 0, i64 %73
  %75 = bitcast i32* %74 to <4 x i32>*
  %76 = load <4 x i32>, <4 x i32>* %75, align 4, !tbaa !5
  %77 = getelementptr inbounds i32, i32* %74, i64 4
  %78 = bitcast i32* %77 to <4 x i32>*
  %79 = load <4 x i32>, <4 x i32>* %78, align 4, !tbaa !5
  %80 = add <4 x i32> %76, %71
  %81 = add <4 x i32> %79, %72
  %82 = icmp eq <4 x i64> %70, <i64 2, i64 2, i64 2, i64 2>
  %83 = icmp eq <4 x i64> %70, <i64 -2, i64 -2, i64 -2, i64 -2>
  %84 = zext <4 x i1> %82 to <4 x i32>
  %85 = zext <4 x i1> %83 to <4 x i32>
  %86 = add <4 x i32> %80, %84
  %87 = add <4 x i32> %81, %85
  %88 = add nuw i64 %69, 8
  %89 = add <4 x i64> %70, <i64 8, i64 8, i64 8, i64 8>
  %90 = icmp eq i64 %88, %66
  br i1 %90, label %91, label %68, !llvm.loop !12

91:                                               ; preds = %68
  %92 = add <4 x i32> %87, %86
  %93 = call i32 @llvm.vector.reduce.add.v4i32(<4 x i32> %92)
  %94 = icmp eq i64 %22, %66
  br i1 %94, label %121, label %95

95:                                               ; preds = %64, %91
  %96 = phi i64 [ 1, %64 ], [ %67, %91 ]
  %97 = phi i32 [ 0, %64 ], [ %93, %91 ]
  br label %98

98:                                               ; preds = %95, %98
  %99 = phi i64 [ %107, %98 ], [ %96, %95 ]
  %100 = phi i32 [ %106, %98 ], [ %97, %95 ]
  %101 = getelementptr inbounds [13 x i32], [13 x i32]* @__const.main.m, i64 0, i64 %99
  %102 = load i32, i32* %101, align 4, !tbaa !5
  %103 = add nsw i32 %102, %100
  %104 = icmp eq i64 %99, 2
  %105 = zext i1 %104 to i32
  %106 = add nsw i32 %103, %105
  %107 = add nuw nsw i64 %99, 1
  %108 = icmp eq i64 %107, %21
  br i1 %108, label %121, label %98, !llvm.loop !13

109:                                              ; preds = %61, %109
  %110 = phi i64 [ %119, %109 ], [ %62, %61 ]
  %111 = phi i32 [ %118, %109 ], [ %63, %61 ]
  %112 = getelementptr inbounds [13 x i32], [13 x i32]* @__const.main.m, i64 0, i64 %110
  %113 = load i32, i32* %112, align 4, !tbaa !5
  %114 = add nsw i32 %113, %111
  %115 = icmp eq i64 %110, 2
  %116 = select i1 %115, i1 %16, i1 false
  %117 = zext i1 %116 to i32
  %118 = add nsw i32 %114, %117
  %119 = add nuw nsw i64 %110, 1
  %120 = icmp eq i64 %119, %21
  br i1 %120, label %121, label %109, !llvm.loop !15

121:                                              ; preds = %109, %98, %57, %91, %0
  %122 = phi i32 [ 0, %0 ], [ %93, %91 ], [ %59, %57 ], [ %106, %98 ], [ %118, %109 ]
  %123 = load i32, i32* %3, align 4, !tbaa !5
  %124 = add nsw i32 %123, %122
  %125 = call nonnull align 8 dereferenceable(8) %"class.std::basic_ostream"* @_ZNSolsEi(%"class.std::basic_ostream"* nonnull align 8 dereferenceable(8) @_ZSt4cout, i32 %124)
  %126 = bitcast %"class.std::basic_ostream"* %125 to i8**
  %127 = load i8*, i8** %126, align 8, !tbaa !16
  %128 = getelementptr i8, i8* %127, i64 -24
  %129 = bitcast i8* %128 to i64*
  %130 = load i64, i64* %129, align 8
  %131 = bitcast %"class.std::basic_ostream"* %125 to i8*
  %132 = add nsw i64 %130, 240
  %133 = getelementptr inbounds i8, i8* %131, i64 %132
  %134 = bitcast i8* %133 to %"class.std::ctype"**
  %135 = load %"class.std::ctype"*, %"class.std::ctype"** %134, align 8, !tbaa !18
  %136 = icmp eq %"class.std::ctype"* %135, null
  br i1 %136, label %137, label %138

137:                                              ; preds = %121
  call void @_ZSt16__throw_bad_castv() #10
  unreachable

138:                                              ; preds = %121
  %139 = getelementptr inbounds %"class.std::ctype", %"class.std::ctype"* %135, i64 0, i32 8
  %140 = load i8, i8* %139, align 8, !tbaa !22
  %141 = icmp eq i8 %140, 0
  br i1 %141, label %145, label %142

142:                                              ; preds = %138
  %143 = getelementptr inbounds %"class.std::ctype", %"class.std::ctype"* %135, i64 0, i32 9, i64 10
  %144 = load i8, i8* %143, align 1, !tbaa !24
  br label %151

145:                                              ; preds = %138
  call void @_ZNKSt5ctypeIcE13_M_widen_initEv(%"class.std::ctype"* nonnull align 8 dereferenceable(570) %135)
  %146 = bitcast %"class.std::ctype"* %135 to i8 (%"class.std::ctype"*, i8)***
  %147 = load i8 (%"class.std::ctype"*, i8)**, i8 (%"class.std::ctype"*, i8)*** %146, align 8, !tbaa !16
  %148 = getelementptr inbounds i8 (%"class.std::ctype"*, i8)*, i8 (%"class.std::ctype"*, i8)** %147, i64 6
  %149 = load i8 (%"class.std::ctype"*, i8)*, i8 (%"class.std::ctype"*, i8)** %148, align 8
  %150 = call signext i8 %149(%"class.std::ctype"* nonnull align 8 dereferenceable(570) %135, i8 signext 10)
  br label %151

151:                                              ; preds = %142, %145
  %152 = phi i8 [ %144, %142 ], [ %150, %145 ]
  %153 = call nonnull align 8 dereferenceable(8) %"class.std::basic_ostream"* @_ZNSo3putEc(%"class.std::basic_ostream"* nonnull align 8 dereferenceable(8) %125, i8 signext %152)
  %154 = call nonnull align 8 dereferenceable(8) %"class.std::basic_ostream"* @_ZNSo5flushEv(%"class.std::basic_ostream"* nonnull align 8 dereferenceable(8) %153)
  call void @llvm.lifetime.end.p0i8(i64 4, i8* nonnull %6) #9
  call void @llvm.lifetime.end.p0i8(i64 4, i8* nonnull %5) #9
  call void @llvm.lifetime.end.p0i8(i64 4, i8* nonnull %4) #9
  ret i32 0
}

; Function Attrs: argmemonly mustprogress nofree nosync nounwind willreturn
declare void @llvm.lifetime.start.p0i8(i64 immarg, i8* nocapture) #5

declare nonnull align 8 dereferenceable(16) %"class.std::basic_istream"* @_ZNSirsERi(%"class.std::basic_istream"* nonnull align 8 dereferenceable(16), i32* nonnull align 4 dereferenceable(4)) local_unnamed_addr #0

declare nonnull align 8 dereferenceable(8) %"class.std::basic_ostream"* @_ZNSolsEi(%"class.std::basic_ostream"* nonnull align 8 dereferenceable(8), i32) local_unnamed_addr #0

; Function Attrs: argmemonly mustprogress nofree nosync nounwind willreturn
declare void @llvm.lifetime.end.p0i8(i64 immarg, i8* nocapture) #5

declare nonnull align 8 dereferenceable(8) %"class.std::basic_ostream"* @_ZNSo3putEc(%"class.std::basic_ostream"* nonnull align 8 dereferenceable(8), i8 signext) local_unnamed_addr #0

declare nonnull align 8 dereferenceable(8) %"class.std::basic_ostream"* @_ZNSo5flushEv(%"class.std::basic_ostream"* nonnull align 8 dereferenceable(8)) local_unnamed_addr #0

; Function Attrs: noreturn
declare void @_ZSt16__throw_bad_castv() local_unnamed_addr #6

declare void @_ZNKSt5ctypeIcE13_M_widen_initEv(%"class.std::ctype"* nonnull align 8 dereferenceable(570)) local_unnamed_addr #0

; Function Attrs: sspstrong uwtable
define internal void @_GLOBAL__sub_I_780.cpp() #7 section ".text.startup" {
  tail call void @_ZNSt8ios_base4InitC1Ev(%"class.std::ios_base::Init"* nonnull align 1 dereferenceable(1) @_ZStL8__ioinit)
  %1 = tail call i32 @__cxa_atexit(void (i8*)* bitcast (void (%"class.std::ios_base::Init"*)* @_ZNSt8ios_base4InitD1Ev to void (i8*)*), i8* getelementptr inbounds (%"class.std::ios_base::Init", %"class.std::ios_base::Init"* @_ZStL8__ioinit, i64 0, i32 0), i8* nonnull @__dso_handle) #9
  ret void
}

; Function Attrs: nofree nosync nounwind readnone willreturn
declare i32 @llvm.vector.reduce.add.v4i32(<4 x i32>) #8


!llvm.module.flags = !{!0, !1, !2, !3}
!llvm.ident = !{!4}

!0 = !{i32 1, !"wchar_size", i32 4}
!1 = !{i32 7, !"PIC Level", i32 2}
!2 = !{i32 7, !"PIE Level", i32 2}
!3 = !{i32 7, !"uwtable", i32 1}
!4 = !{!"clang version 13.0.0"}
!5 = !{!6, !6, i64 0}
!6 = !{!"int", !7, i64 0}
!7 = !{!"omnipotent char", !8, i64 0}
!8 = !{!"Simple C++ TBAA"}
!9 = distinct !{!9, !10, !11}
!10 = !{!"llvm.loop.mustprogress"}
!11 = !{!"llvm.loop.isvectorized", i32 1}
!12 = distinct !{!12, !10, !11}
!13 = distinct !{!13, !10, !14, !11}
!14 = !{!"llvm.loop.unroll.runtime.disable"}
!15 = distinct !{!15, !10, !14, !11}
!16 = !{!17, !17, i64 0}
!17 = !{!"vtable pointer", !8, i64 0}
!18 = !{!19, !20, i64 240}
!19 = !{!"_ZTSSt9basic_iosIcSt11char_traitsIcEE", !20, i64 216, !7, i64 224, !21, i64 225, !20, i64 232, !20, i64 240, !20, i64 248, !20, i64 256}
!20 = !{!"any pointer", !7, i64 0}
!21 = !{!"bool", !7, i64 0}
!22 = !{!23, !7, i64 56}
!23 = !{!"_ZTSSt5ctypeIcE", !20, i64 16, !21, i64 24, !20, i64 32, !20, i64 40, !20, i64 48, !7, i64 56, !7, i64 57, !7, i64 313, !7, i64 569}
!24 = !{!7, !7, i64 0}
